target datalayout = "e-m:e-p270:32:32-p271:32:32-p272:64:64-i64:64-i128:128-f80:128-n8:16:32:64-S128"
target triple = "x86_64-pc-linux-gnu"

%struct.functionLibInfo = type { ptr, ptr, ptr, ptr }

; Function Attrs: nounwind uwtable
define internal void @engineLibraryFree(ptr noundef %0) #1 {
  %2 = alloca ptr, align 8
  store ptr %0, ptr %2, align 8, !tbaa !58
  %3 = load ptr, ptr %2, align 8, !tbaa !58
  %4 = icmp ne ptr %3, null
  br i1 %4, label %6, label %5

5:                                                ; preds = %1
  br label %17

6:                                                ; preds = %1
  %7 = load ptr, ptr %2, align 8, !tbaa !58
  %8 = getelementptr inbounds nuw %struct.functionLibInfo, ptr %7, i32 0, i32 1
  %9 = load ptr, ptr %8, align 8, !tbaa !62
  call void @dictRelease(ptr noundef %9)
  %10 = load ptr, ptr %2, align 8, !tbaa !58
  %11 = getelementptr inbounds nuw %struct.functionLibInfo, ptr %10, i32 0, i32 0
  %12 = load ptr, ptr %11, align 8, !tbaa !116
  call void @sdsfree(ptr noundef %12)
  %13 = load ptr, ptr %2, align 8, !tbaa !58
  %14 = getelementptr inbounds nuw %struct.functionLibInfo, ptr %13, i32 0, i32 3
  %15 = load ptr, ptr %14, align 8, !tbaa !119
  call void @sdsfree(ptr noundef %15)
  %16 = load ptr, ptr %2, align 8, !tbaa !58
  call void @zfree(ptr noundef %16)
  br label %17

17:                                               ; preds = %6, %5
  ret void
}

; Function Attrs: nounwind uwtable
define internal void @engineLibraryFreeGeneric(ptr noundef %0) #1 {
  %2 = alloca ptr, align 8
  store ptr %0, ptr %2, align 8, !tbaa !10
  %3 = load ptr, ptr %2, align 8, !tbaa !10
  call void @engineLibraryFree(ptr noundef %3)
  ret void
}