; Function Attrs: nounwind uwtable
define internal void @engineLibraryFreeGeneric(ptr noundef %0) #1 {
  %.not.i = icmp eq ptr %0, null
  br i1 %.not.i, label %engineLibraryFree.exit, label %2

2:                                                ; preds = %1
  %3 = getelementptr inbounds nuw i8, ptr %0, i64 8
  %4 = load ptr, ptr %3, align 8, !tbaa !30
  tail call void @dictRelease(ptr noundef %4) #12
  %5 = load ptr, ptr %0, align 8, !tbaa !31
  tail call void @sdsfree(ptr noundef %5) #12
  %6 = getelementptr inbounds nuw i8, ptr %0, i64 24
  %7 = load ptr, ptr %6, align 8, !tbaa !32
  tail call void @sdsfree(ptr noundef %7) #12
  tail call void @zfree(ptr noundef nonnull %0) #12
  br label %engineLibraryFree.exit

engineLibraryFree.exit:                           ; preds = %1, %2
  ret void
}